; Function Attrs: nounwind uwtable
define internal void @pdcon(ptr noundef %0) #0 {
  %2 = getelementptr inbounds nuw i8, ptr %0, i64 56
  %3 = load ptr, ptr %2, align 8, !tbaa !3
  %.not.i = icmp eq ptr %3, null
  %4 = load i64, ptr getelementptr inbounds nuw (i8, ptr @pmix_pointer_array_t_class, i64 56), align 8, !tbaa !71
  br i1 %.not.i, label %7, label %5

5:                                                ; preds = %1
  %6 = tail call ptr %3(ptr noundef nonnull %2, i64 noundef %4) #17
  br label %pmix_tma_malloc.exit.i

7:                                                ; preds = %1
  %8 = tail call noalias ptr @malloc(i64 noundef %4) #18
  br label %pmix_tma_malloc.exit.i

pmix_tma_malloc.exit.i:                           ; preds = %7, %5
  %.0.i.i = phi ptr [ %6, %5 ], [ %8, %7 ]
  %9 = load i32, ptr @pmix_class_init_epoch, align 4, !tbaa !73
  %10 = load i32, ptr getelementptr inbounds nuw (i8, ptr @pmix_pointer_array_t_class, i64 32), align 8, !tbaa !74
  %.not.i7 = icmp eq i32 %9, %10
  br i1 %.not.i7, label %12, label %11

11:                                               ; preds = %pmix_tma_malloc.exit.i
  tail call void @pmix_class_initialize(ptr noundef nonnull @pmix_pointer_array_t_class) #17
  br label %12

12:                                               ; preds = %11, %pmix_tma_malloc.exit.i
  %.not22.i = icmp eq ptr %.0.i.i, null
  br i1 %.not22.i, label %pmix_obj_new_tma.exit, label %13

13:                                               ; preds = %12
  %14 = tail call i32 @pthread_mutex_init(ptr noundef nonnull %.0.i.i, ptr noundef null) #17
  %15 = getelementptr inbounds nuw i8, ptr %.0.i.i, i64 40
  store ptr @pmix_pointer_array_t_class, ptr %15, align 8, !tbaa !75
  %16 = getelementptr inbounds nuw i8, ptr %.0.i.i, i64 48
  store i32 1, ptr %16, align 8, !tbaa !76
  %17 = getelementptr inbounds nuw i8, ptr %.0.i.i, i64 56
  br i1 %.not.i, label %18, label %20

18:                                               ; preds = %13
  %19 = getelementptr inbounds nuw i8, ptr %.0.i.i, i64 96
  tail call void @llvm.memset.p0.i64(ptr noundef nonnull align 8 dereferenceable(32) %17, i8 0, i64 32, i1 false)
  tail call void @llvm.memset.p0.i64(ptr noundef nonnull align 8 dereferenceable(24) %19, i8 0, i64 24, i1 false)
  br label %21

20:                                               ; preds = %13
  tail call void @llvm.memcpy.p0.p0.i64(ptr noundef nonnull align 8 dereferenceable(64) %17, ptr noundef nonnull align 8 dereferenceable(64) %2, i64 64, i1 false), !tbaa.struct !77
  br label %21

21:                                               ; preds = %20, %18
  %22 = load ptr, ptr getelementptr inbounds nuw (i8, ptr @pmix_pointer_array_t_class, i64 40), align 8, !tbaa !78
  %23 = load ptr, ptr %22, align 8, !tbaa !62
  %.not6.i.i = icmp eq ptr %23, null
  br i1 %.not6.i.i, label %pmix_obj_new_tma.exit, label %.lr.ph.i.i

.lr.ph.i.i:                                       ; preds = %21, %.lr.ph.i.i
  %24 = phi ptr [ %26, %.lr.ph.i.i ], [ %23, %21 ]
  %.07.i.i = phi ptr [ %25, %.lr.ph.i.i ], [ %22, %21 ]
  tail call void %24(ptr noundef nonnull %.0.i.i) #17
  %25 = getelementptr inbounds nuw i8, ptr %.07.i.i, i64 8
  %26 = load ptr, ptr %25, align 8, !tbaa !62
  %.not.i23.i = icmp eq ptr %26, null
  br i1 %.not.i23.i, label %pmix_obj_new_tma.exit, label %.lr.ph.i.i, !llvm.loop !79

pmix_obj_new_tma.exit:                            ; preds = %.lr.ph.i.i, %12, %21
  %27 = getelementptr inbounds nuw i8, ptr %0, i64 120
  store ptr %.0.i.i, ptr %27, align 8, !tbaa !55
  %28 = tail call i32 @pmix_pointer_array_init(ptr noundef %.0.i.i, i32 noundef 128, i32 noundef 2147483647, i32 noundef 128) #17
  %29 = load i64, ptr getelementptr inbounds nuw (i8, ptr @pmix_pointer_array_t_class, i64 56), align 8, !tbaa !71
  br i1 %.not.i, label %33, label %30

30:                                               ; preds = %pmix_obj_new_tma.exit
  %31 = load ptr, ptr %2, align 8, !tbaa !39
  %32 = tail call ptr %31(ptr noundef nonnull %2, i64 noundef %29) #17
  br label %pmix_tma_malloc.exit.i8

33:                                               ; preds = %pmix_obj_new_tma.exit
  %34 = tail call noalias ptr @malloc(i64 noundef %29) #18
  br label %pmix_tma_malloc.exit.i8

pmix_tma_malloc.exit.i8:                          ; preds = %33, %30
  %.0.i.i9 = phi ptr [ %32, %30 ], [ %34, %33 ]
  %35 = load i32, ptr @pmix_class_init_epoch, align 4, !tbaa !73
  %36 = load i32, ptr getelementptr inbounds nuw (i8, ptr @pmix_pointer_array_t_class, i64 32), align 8, !tbaa !74
  %.not.i10 = icmp eq i32 %35, %36
  br i1 %.not.i10, label %38, label %37

37:                                               ; preds = %pmix_tma_malloc.exit.i8
  tail call void @pmix_class_initialize(ptr noundef nonnull @pmix_pointer_array_t_class) #17
  br label %38

38:                                               ; preds = %37, %pmix_tma_malloc.exit.i8
  %.not22.i11 = icmp eq ptr %.0.i.i9, null
  br i1 %.not22.i11, label %pmix_obj_new_tma.exit16, label %39

39:                                               ; preds = %38
  %40 = tail call i32 @pthread_mutex_init(ptr noundef nonnull %.0.i.i9, ptr noundef null) #17
  %41 = getelementptr inbounds nuw i8, ptr %.0.i.i9, i64 40
  store ptr @pmix_pointer_array_t_class, ptr %41, align 8, !tbaa !75
  %42 = getelementptr inbounds nuw i8, ptr %.0.i.i9, i64 48
  store i32 1, ptr %42, align 8, !tbaa !76
  %43 = getelementptr inbounds nuw i8, ptr %.0.i.i9, i64 56
  br i1 %.not.i, label %44, label %46

44:                                               ; preds = %39
  %45 = getelementptr inbounds nuw i8, ptr %.0.i.i9, i64 96
  tail call void @llvm.memset.p0.i64(ptr noundef nonnull align 8 dereferenceable(32) %43, i8 0, i64 32, i1 false)
  tail call void @llvm.memset.p0.i64(ptr noundef nonnull align 8 dereferenceable(24) %45, i8 0, i64 24, i1 false)
  br label %47

46:                                               ; preds = %39
  tail call void @llvm.memcpy.p0.p0.i64(ptr noundef nonnull align 8 dereferenceable(64) %43, ptr noundef nonnull align 8 dereferenceable(64) %2, i64 64, i1 false), !tbaa.struct !77
  br label %47

47:                                               ; preds = %46, %44
  %48 = load ptr, ptr getelementptr inbounds nuw (i8, ptr @pmix_pointer_array_t_class, i64 40), align 8, !tbaa !78
  %49 = load ptr, ptr %48, align 8, !tbaa !62
  %.not6.i.i12 = icmp eq ptr %49, null
  br i1 %.not6.i.i12, label %pmix_obj_new_tma.exit16, label %.lr.ph.i.i13

.lr.ph.i.i13:                                     ; preds = %47, %.lr.ph.i.i13
  %50 = phi ptr [ %52, %.lr.ph.i.i13 ], [ %49, %47 ]
  %.07.i.i14 = phi ptr [ %51, %.lr.ph.i.i13 ], [ %48, %47 ]
  tail call void %50(ptr noundef nonnull %.0.i.i9) #17
  %51 = getelementptr inbounds nuw i8, ptr %.07.i.i14, i64 8
  %52 = load ptr, ptr %51, align 8, !tbaa !62
  %.not.i23.i15 = icmp eq ptr %52, null
  br i1 %.not.i23.i15, label %pmix_obj_new_tma.exit16, label %.lr.ph.i.i13, !llvm.loop !79

pmix_obj_new_tma.exit16:                          ; preds = %.lr.ph.i.i13, %38, %47
  %53 = getelementptr inbounds nuw i8, ptr %0, i64 128
  store ptr %.0.i.i9, ptr %53, align 8, !tbaa !48
  %54 = tail call i32 @pmix_pointer_array_init(ptr noundef %.0.i.i9, i32 noundef 1, i32 noundef 2147483647, i32 noundef 1) #17
  ret void
}